; Function Attrs: mustprogress nofree nounwind willreturn memory(read) uwtable
define noundef ptr @_ZNK3g2o9DataQueue6beforeEd(ptr noundef nonnull readonly align 8 dereferenceable(48) %0, double noundef %1) local_unnamed_addr #3 align 2 personality ptr @__gxx_personality_v0 {
  %3 = getelementptr inbounds i8, ptr %0, i64 40
  %4 = load i64, ptr %3, align 8
  %5 = icmp eq i64 %4, 0
  br i1 %5, label %.critedge, label %6

6:                                                ; preds = %2
  %7 = getelementptr inbounds i8, ptr %0, i64 24
  %8 = load ptr, ptr %7, align 8
  %9 = getelementptr inbounds nuw i8, ptr %8, i64 32
  %10 = load double, ptr %9, align 8
  %11 = fcmp ult double %10, %1
  br i1 %11, label %12, label %.critedge

12:                                               ; preds = %6
  %13 = getelementptr inbounds i8, ptr %0, i64 16
  %14 = load ptr, ptr %13, align 8
  %15 = getelementptr inbounds i8, ptr %0, i64 8
  %.not10.i.i.i = icmp eq ptr %14, null
  br i1 %.not10.i.i.i, label %_ZNKSt3mapIdPN3g2o9RobotDataESt4lessIdESaISt4pairIKdS2_EEE11upper_boundERS6_.exit, label %.lr.ph.i.i.i

.lr.ph.i.i.i:                                     ; preds = %12, %.lr.ph.i.i.i
  %.012.i.i.i = phi ptr [ %.1.i.i.i, %.lr.ph.i.i.i ], [ %14, %12 ]
  %.0811.i.i.i = phi ptr [ %.19.i.i.i, %.lr.ph.i.i.i ], [ %15, %12 ]
  %16 = getelementptr inbounds nuw i8, ptr %.012.i.i.i, i64 32
  %17 = load double, ptr %16, align 8
  %18 = fcmp olt double %1, %17
  %.19.i.i.i = select i1 %18, ptr %.012.i.i.i, ptr %.0811.i.i.i
  %.1.in.v.i.i.i = select i1 %18, i64 16, i64 24
  %.1.in.i.i.i = getelementptr inbounds nuw i8, ptr %.012.i.i.i, i64 %.1.in.v.i.i.i
  %.1.i.i.i = load ptr, ptr %.1.in.i.i.i, align 8
  %.not.i.i.i = icmp eq ptr %.1.i.i.i, null
  br i1 %.not.i.i.i, label %_ZNKSt3mapIdPN3g2o9RobotDataESt4lessIdESaISt4pairIKdS2_EEE11upper_boundERS6_.exit, label %.lr.ph.i.i.i, !llvm.loop !4

_ZNKSt3mapIdPN3g2o9RobotDataESt4lessIdESaISt4pairIKdS2_EEE11upper_boundERS6_.exit: ; preds = %.lr.ph.i.i.i, %12
  %.08.lcssa.i.i.i = phi ptr [ %15, %12 ], [ %.19.i.i.i, %.lr.ph.i.i.i ]
  %19 = tail call noundef ptr @_ZSt18_Rb_tree_decrementPKSt18_Rb_tree_node_base(ptr noundef %.08.lcssa.i.i.i) #10
  %20 = getelementptr inbounds i8, ptr %19, i64 40
  %21 = load ptr, ptr %20, align 8
  br label %.critedge

.critedge:                                        ; preds = %6, %2, %_ZNKSt3mapIdPN3g2o9RobotDataESt4lessIdESaISt4pairIKdS2_EEE11upper_boundERS6_.exit
  %.0 = phi ptr [ %21, %_ZNKSt3mapIdPN3g2o9RobotDataESt4lessIdESaISt4pairIKdS2_EEE11upper_boundERS6_.exit ], [ null, %2 ], [ null, %6 ]
  ret ptr %.0
}